Certificate:
    Data:
        Version: 3 (0x2)
        Serial Number: 305419898 (0x1234567a)
        Signature Algorithm: sha256WithRSAEncryption
        Issuer: CN=SRK1_sha256_2048_65537_v3_ca
        Validity
            Not Before: Apr 27 06:02:50 2023 GMT
            Not After : Apr 24 06:02:50 2033 GMT
        Subject: CN=IMG1_1_sha256_2048_65537_v3_usr
        Subject Public Key Info:
            Public Key Algorithm: rsaEncryption
                RSA Public-Key: (2048 bit)
                Modulus:
                    00:c3:3a:c0:b2:ff:ac:4d:aa:40:2e:6c:73:5b:54:
                    80:0f:67:81:88:7e:01:59:e6:66:eb:8a:63:a7:11:
                    3a:dc:f7:e6:e1:0f:4d:02:55:95:34:21:0f:8d:26:
                    47:90:66:39:b0:18:bd:c5:69:b4:d2:77:2d:ed:a3:
                    02:4f:43:43:a5:ea:dd:17:06:c6:12:c0:78:13:81:
                    c9:f3:7e:e0:e0:69:3d:b8:6c:e3:76:1a:f7:d5:dc:
                    d3:4b:10:8c:b2:50:23:96:12:be:28:bd:bf:d5:1f:
                    eb:31:dd:f3:eb:70:95:39:46:a2:22:5b:c6:30:78:
                    93:09:7a:4d:63:65:36:1e:75:3e:8d:f5:16:71:0f:
                    23:f5:b4:c4:a6:4b:23:de:ea:cf:37:42:63:0f:8c:
                    99:24:8a:a7:4f:00:b5:aa:84:fd:ca:f4:39:c1:2b:
                    3d:28:f3:56:71:4e:08:c0:74:55:1e:96:50:aa:d9:
                    45:9e:89:b0:ea:fb:18:b6:89:8f:49:a5:bb:8e:78:
                    ac:33:a5:9a:bc:41:c8:2c:08:30:ff:81:42:41:8e:
                    91:27:ce:13:4a:4b:f9:09:07:51:f2:b2:01:f3:ef:
                    48:06:e5:c4:16:57:f4:a1:26:a4:b5:30:aa:c0:ac:
                    f1:c0:5b:1d:60:3c:af:45:7f:b5:ed:f5:f2:75:2c:
                    7d:a3
                Exponent: 65537 (0x10001)
        X509v3 extensions:
            X509v3 Basic Constraints: 
                CA:FALSE
            Netscape Comment: 
                OpenSSL Generated Certificate
            X509v3 Subject Key Identifier: 
                EB:6B:33:64:0D:4D:AE:31:09:11:69:85:DA:63:65:56:60:A0:DA:72
            X509v3 Authority Key Identifier: 
                keyid:FE:D7:AE:17:6B:32:C2:2A:E8:B1:DB:E4:22:88:5C:58:42:30:A2:A8

    Signature Algorithm: sha256WithRSAEncryption
         14:82:7f:c6:ae:69:89:e4:7e:37:7f:2e:bd:e5:7b:28:54:bd:
         04:d6:b5:48:31:17:6c:83:41:ae:db:c4:48:c4:6c:34:65:95:
         36:ce:68:c1:13:1d:49:ea:94:ae:5e:c0:3a:09:b9:67:52:62:
         c1:dd:63:82:f8:c4:9e:c0:f9:f3:62:74:d9:89:75:28:e0:ba:
         56:04:8e:46:c6:3b:ec:b6:95:30:43:f6:e7:2f:72:02:6e:47:
         b4:93:ca:91:91:21:0a:ad:5f:63:b0:f8:02:9c:16:de:1a:ae:
         03:78:95:2a:b3:32:fc:1a:bf:7c:aa:07:57:d3:7b:3b:27:ce:
         24:4a:03:13:e3:ab:96:6d:de:7d:87:5b:ff:e4:d9:a5:df:c8:
         64:42:3d:81:ba:90:28:58:aa:e7:43:41:0a:ff:97:a2:ce:02:
         6d:95:cc:55:66:38:1f:5a:16:bb:72:f8:7a:4f:41:7b:2b:0c:
         19:54:07:5e:6c:69:7a:aa:d3:02:b5:88:e4:43:8c:49:c6:4f:
         b7:9b:74:7c:76:07:21:f8:10:cf:b0:97:12:d9:52:9a:6b:d6:
         97:65:ee:60:cd:b1:75:fb:47:b8:34:d1:82:27:33:70:fc:72:
         4f:11:16:59:a1:19:c4:98:ec:fb:24:3b:96:ae:16:bb:92:5f:
         a9:03:47:8e
-----BEGIN CERTIFICATE-----
MIIDSjCCAjKgAwIBAgIEEjRWejANBgkqhkiG9w0BAQsFADAnMSUwIwYDVQQDFBxT
UksxX3NoYTI1Nl8yMDQ4XzY1NTM3X3YzX2NhMB4XDTIzMDQyNzA2MDI1MFoXDTMz
MDQyNDA2MDI1MFowKjEoMCYGA1UEAxQfSU1HMV8xX3NoYTI1Nl8yMDQ4XzY1NTM3
X3YzX3VzcjCCASIwDQYJKoZIhvcNAQEBBQADggEPADCCAQoCggEBAMM6wLL/rE2q
QC5sc1tUgA9ngYh+AVnmZuuKY6cROtz35uEPTQJVlTQhD40mR5BmObAYvcVptNJ3
Le2jAk9DQ6Xq3RcGxhLAeBOByfN+4OBpPbhs43Ya99Xc00sQjLJQI5YSvii9v9Uf
6zHd8+twlTlGoiJbxjB4kwl6TWNlNh51Po31FnEPI/W0xKZLI97qzzdCYw+MmSSK
p08AtaqE/cr0OcErPSjzVnFOCMB0VR6WUKrZRZ6JsOr7GLaJj0mlu454rDOlmrxB
yCwIMP+BQkGOkSfOE0pL+QkHUfKyAfPvSAblxBZX9KEmpLUwqsCs8cBbHWA8r0V/
te318nUsfaMCAwEAAaN7MHkwCQYDVR0TBAIwADAsBglghkgBhvhCAQ0EHxYdT3Bl
blNTTCBHZW5lcmF0ZWQgQ2VydGlmaWNhdGUwHQYDVR0OBBYEFOtrM2QNTa4xCRFp
hdpjZVZgoNpyMB8GA1UdIwQYMBaAFP7XrhdrMsIq6LHb5CKIXFhCMKKoMA0GCSqG
SIb3DQEBCwUAA4IBAQAUgn/GrmmJ5H43fy695XsoVL0E1rVIMRdsg0Gu28RIxGw0
ZZU2zmjBEx1J6pSuXsA6CblnUmLB3WOC+MSewPnzYnTZiXUo4LpWBI5GxjvstpUw
Q/bnL3ICbke0k8qRkSEKrV9jsPgCnBbeGq4DeJUqszL8Gr98qgdX03s7J84kSgMT
46uWbd59h1v/5Nml38hkQj2BupAoWKrnQ0EK/5eizgJtlcxVZjgfWha7cvh6T0F7
KwwZVAdebGl6qtMCtYjkQ4xJxk+3m3R8dgch+BDPsJcS2VKaa9aXZe5gzbF1+0e4
NNGCJzNw/HJPERZZoRnEmOz7JDuWrha7kl+pA0eO
-----END CERTIFICATE-----
